target datalayout = "e-m:e-p270:32:32-p271:32:32-p272:64:64-i64:64-i128:128-f80:128-n8:16:32:64-S128"
target triple = "x86_64-pc-linux-gnu"

%struct.rusage = type { %struct.timeval, %struct.timeval, %union.anon, %union.anon.0, %union.anon.1, %union.anon.2, %union.anon.3, %union.anon.4, %union.anon.5, %union.anon.6, %union.anon.7, %union.anon.8, %union.anon.9, %union.anon.10, %union.anon.11, %union.anon.12 }
%struct.timeval = type { i64, i64 }
%union.anon = type { i64 }
%union.anon.0 = type { i64 }
%union.anon.1 = type { i64 }
%union.anon.2 = type { i64 }
%union.anon.3 = type { i64 }
%union.anon.4 = type { i64 }
%union.anon.5 = type { i64 }
%union.anon.6 = type { i64 }
%union.anon.7 = type { i64 }
%union.anon.8 = type { i64 }
%union.anon.9 = type { i64 }
%union.anon.10 = type { i64 }
%union.anon.11 = type { i64 }
%union.anon.12 = type { i64 }
%struct.mi_process_info_s = type { i64, i64, i64, i64, i64, i64, i64, i64 }

; Function Attrs: nounwind uwtable
define internal i64 @timeval_secs(ptr noundef %0) #0 {
  %2 = alloca ptr, align 8
  store ptr %0, ptr %2, align 8, !tbaa !45
  %3 = load ptr, ptr %2, align 8, !tbaa !45
  %4 = getelementptr inbounds nuw %struct.timeval, ptr %3, i32 0, i32 0
  %5 = load i64, ptr %4, align 8, !tbaa !47
  %6 = mul nsw i64 %5, 1000
  %7 = load ptr, ptr %2, align 8, !tbaa !45
  %8 = getelementptr inbounds nuw %struct.timeval, ptr %7, i32 0, i32 1
  %9 = load i64, ptr %8, align 8, !tbaa !49
  %10 = sdiv i64 %9, 1000
  %11 = add nsw i64 %6, %10
  ret i64 %11
}

; Function Attrs: nounwind uwtable
define hidden void @_mi_prim_process_info(ptr noundef %0) #0 {
  %2 = alloca ptr, align 8
  %3 = alloca %struct.rusage, align 8
  store ptr %0, ptr %2, align 8, !tbaa !38
  call void @llvm.lifetime.start.p0(i64 144, ptr %3) #6
  %4 = call i32 @getrusage(i32 noundef 0, ptr noundef %3) #7
  %5 = getelementptr inbounds nuw %struct.rusage, ptr %3, i32 0, i32 0
  %6 = call i64 @timeval_secs(ptr noundef %5) #8
  %7 = load ptr, ptr %2, align 8, !tbaa !38
  %8 = getelementptr inbounds nuw %struct.mi_process_info_s, ptr %7, i32 0, i32 1
  store i64 %6, ptr %8, align 8, !tbaa !40
  %9 = getelementptr inbounds nuw %struct.rusage, ptr %3, i32 0, i32 1
  %10 = call i64 @timeval_secs(ptr noundef %9) #8
  %11 = load ptr, ptr %2, align 8, !tbaa !38
  %12 = getelementptr inbounds nuw %struct.mi_process_info_s, ptr %11, i32 0, i32 2
  store i64 %10, ptr %12, align 8, !tbaa !42
  %13 = getelementptr inbounds nuw %struct.rusage, ptr %3, i32 0, i32 7
  %14 = load i64, ptr %13, align 8, !tbaa !22
  %15 = load ptr, ptr %2, align 8, !tbaa !38
  %16 = getelementptr inbounds nuw %struct.mi_process_info_s, ptr %15, i32 0, i32 7
  store i64 %14, ptr %16, align 8, !tbaa !43
  %17 = getelementptr inbounds nuw %struct.rusage, ptr %3, i32 0, i32 2
  %18 = load i64, ptr %17, align 8, !tbaa !22
  %19 = mul nsw i64 %18, 1024
  %20 = load ptr, ptr %2, align 8, !tbaa !38
  %21 = getelementptr inbounds nuw %struct.mi_process_info_s, ptr %20, i32 0, i32 4
  store i64 %19, ptr %21, align 8, !tbaa !44
  call void @llvm.lifetime.end.p0(i64 144, ptr %3) #6
  ret void
}