; Function Attrs: nounwind uwtable
define hidden void @_mi_prim_process_info(ptr noundef writeonly captures(none) initializes((8, 24), (32, 40), (56, 64)) %0) local_unnamed_addr #0 {
  %2 = alloca %struct.rusage, align 8
  call void @llvm.lifetime.start.p0(i64 144, ptr nonnull %2) #11
  %3 = call i32 @getrusage(i32 noundef 0, ptr noundef nonnull %2) #10
  %.val = load i64, ptr %2, align 8, !tbaa !27
  %4 = getelementptr inbounds nuw i8, ptr %2, i64 8
  %.val4 = load i64, ptr %4, align 8, !tbaa !29
  %5 = mul nsw i64 %.val, 1000
  %6 = sdiv i64 %.val4, 1000
  %7 = add nsw i64 %6, %5
  %8 = getelementptr inbounds nuw i8, ptr %0, i64 8
  store i64 %7, ptr %8, align 8, !tbaa !30
  %9 = getelementptr inbounds nuw i8, ptr %2, i64 16
  %.val5 = load i64, ptr %9, align 8, !tbaa !27
  %10 = getelementptr inbounds nuw i8, ptr %2, i64 24
  %.val6 = load i64, ptr %10, align 8, !tbaa !29
  %11 = mul nsw i64 %.val5, 1000
  %12 = sdiv i64 %.val6, 1000
  %13 = add nsw i64 %12, %11
  %14 = getelementptr inbounds nuw i8, ptr %0, i64 16
  store i64 %13, ptr %14, align 8, !tbaa !32
  %15 = getelementptr inbounds nuw i8, ptr %2, i64 72
  %16 = load i64, ptr %15, align 8, !tbaa !33
  %17 = getelementptr inbounds nuw i8, ptr %0, i64 56
  store i64 %16, ptr %17, align 8, !tbaa !34
  %18 = getelementptr inbounds nuw i8, ptr %2, i64 32
  %19 = load i64, ptr %18, align 8, !tbaa !33
  %20 = shl nsw i64 %19, 10
  %21 = getelementptr inbounds nuw i8, ptr %0, i64 32
  store i64 %20, ptr %21, align 8, !tbaa !35
  call void @llvm.lifetime.end.p0(i64 144, ptr nonnull %2) #11
  ret void
}